; Function Attrs: mustprogress nounwind uwtable
define hidden noundef zeroext i1 @_ZNK4Node27needs_anti_dependence_checkEv(ptr nocapture noundef nonnull readonly align 8 dereferenceable(52) %0) local_unnamed_addr #0 align 2 {
  %2 = getelementptr inbounds i8, ptr %0, i64 24
  %3 = load i32, ptr %2, align 8
  %4 = icmp ult i32 %3, 2
  br i1 %4, label %20, label %5

5:                                                ; preds = %1
  %6 = getelementptr inbounds i8, ptr %0, i64 48
  %7 = load i32, ptr %6, align 8
  %8 = and i32 %7, 4
  %9 = icmp eq i32 %8, 0
  br i1 %9, label %20, label %10

10:                                               ; preds = %5
  %11 = getelementptr inbounds i8, ptr %0, i64 8
  %12 = load ptr, ptr %11, align 8
  %13 = getelementptr inbounds i8, ptr %12, i64 8
  %14 = load ptr, ptr %13, align 8
  %15 = load ptr, ptr %14, align 8
  %16 = getelementptr inbounds i8, ptr %15, i64 40
  %17 = load ptr, ptr %16, align 8
  %18 = tail call noundef ptr %17(ptr noundef nonnull align 8 dereferenceable(52) %14) #15
  %19 = tail call noundef zeroext i1 @_ZNK4Type10has_memoryEv(ptr noundef nonnull align 8 dereferenceable(20) %18) #15
  br label %20

20:                                               ; preds = %1, %5, %10
  %.0 = phi i1 [ %19, %10 ], [ false, %5 ], [ false, %1 ]
  ret i1 %.0
}